target datalayout = "e-m:e-p270:32:32-p271:32:32-p272:64:64-i64:64-i128:128-f80:128-n8:16:32:64-S128"
target triple = "x86_64-pc-linux-gnu"

; Function Attrs: inlinehint nounwind uwtable
define internal i32 @constant_time_msb(i32 noundef %0) #2 {
  %2 = alloca i32, align 4
  store i32 %0, ptr %2, align 4, !tbaa !13
  %3 = load i32, ptr %2, align 4, !tbaa !13
  %4 = ashr i32 %3, 31
  ret i32 %4
}

; Function Attrs: inlinehint nounwind uwtable
define internal i32 @constant_time_lt(i32 noundef %0, i32 noundef %1) #2 {
  %3 = alloca i32, align 4
  %4 = alloca i32, align 4
  store i32 %0, ptr %3, align 4, !tbaa !13
  store i32 %1, ptr %4, align 4, !tbaa !13
  %5 = load i32, ptr %3, align 4, !tbaa !13
  %6 = load i32, ptr %3, align 4, !tbaa !13
  %7 = load i32, ptr %4, align 4, !tbaa !13
  %8 = xor i32 %6, %7
  %9 = load i32, ptr %3, align 4, !tbaa !13
  %10 = load i32, ptr %4, align 4, !tbaa !13
  %11 = sub i32 %9, %10
  %12 = load i32, ptr %3, align 4, !tbaa !13
  %13 = xor i32 %11, %12
  %14 = or i32 %8, %13
  %15 = xor i32 %5, %14
  %16 = call i32 @constant_time_msb(i32 noundef %15)
  ret i32 %16
}

; Function Attrs: inlinehint nounwind uwtable
define internal zeroext i8 @constant_time_ge_8(i32 noundef %0, i32 noundef %1) #2 {
  %3 = alloca i32, align 4
  %4 = alloca i32, align 4
  store i32 %0, ptr %3, align 4, !tbaa !13
  store i32 %1, ptr %4, align 4, !tbaa !13
  %5 = load i32, ptr %3, align 4, !tbaa !13
  %6 = load i32, ptr %4, align 4, !tbaa !13
  %7 = call i32 @constant_time_ge(i32 noundef %5, i32 noundef %6)
  %8 = trunc i32 %7 to i8
  ret i8 %8
}

; Function Attrs: inlinehint nounwind uwtable
define internal i32 @constant_time_select(i32 noundef %0, i32 noundef %1, i32 noundef %2) #2 {
  %4 = alloca i32, align 4
  %5 = alloca i32, align 4
  %6 = alloca i32, align 4
  store i32 %0, ptr %4, align 4, !tbaa !13
  store i32 %1, ptr %5, align 4, !tbaa !13
  store i32 %2, ptr %6, align 4, !tbaa !13
  %7 = load i32, ptr %4, align 4, !tbaa !13
  %8 = load i32, ptr %5, align 4, !tbaa !13
  %9 = and i32 %7, %8
  %10 = load i32, ptr %4, align 4, !tbaa !13
  %11 = xor i32 %10, -1
  %12 = load i32, ptr %6, align 4, !tbaa !13
  %13 = and i32 %11, %12
  %14 = or i32 %9, %13
  ret i32 %14
}

; Function Attrs: inlinehint nounwind uwtable
define internal i32 @constant_time_ge(i32 noundef %0, i32 noundef %1) #2 {
  %3 = alloca i32, align 4
  %4 = alloca i32, align 4
  store i32 %0, ptr %3, align 4, !tbaa !13
  store i32 %1, ptr %4, align 4, !tbaa !13
  %5 = load i32, ptr %3, align 4, !tbaa !13
  %6 = load i32, ptr %4, align 4, !tbaa !13
  %7 = call i32 @constant_time_lt(i32 noundef %5, i32 noundef %6)
  %8 = xor i32 %7, -1
  ret i32 %8
}

; Function Attrs: nounwind uwtable
define hidden void @EVP_tls_cbc_copy_mac(ptr noundef %0, i32 noundef %1, ptr noundef %2, i32 noundef %3, i32 noundef %4) #0 {
  %6 = alloca ptr, align 8
  %7 = alloca i32, align 4
  %8 = alloca ptr, align 8
  %9 = alloca i32, align 4
  %10 = alloca i32, align 4
  %11 = alloca [128 x i8], align 16
  %12 = alloca ptr, align 8
  %13 = alloca i32, align 4
  %14 = alloca i32, align 4
  %15 = alloca i32, align 4
  %16 = alloca i32, align 4
  %17 = alloca i32, align 4
  %18 = alloca i32, align 4
  %19 = alloca i32, align 4
  %20 = alloca i32, align 4
  %21 = alloca i8, align 1
  %22 = alloca i8, align 1
  %23 = alloca i8, align 1
  store ptr %0, ptr %6, align 8, !tbaa !11
  store i32 %1, ptr %7, align 4, !tbaa !13
  store ptr %2, ptr %8, align 8, !tbaa !11
  store i32 %3, ptr %9, align 4, !tbaa !13
  store i32 %4, ptr %10, align 4, !tbaa !13
  call void @llvm.lifetime.start.p0(i64 128, ptr %11) #6
  call void @llvm.lifetime.start.p0(i64 8, ptr %12) #6
  call void @llvm.lifetime.start.p0(i64 4, ptr %13) #6
  %24 = load i32, ptr %9, align 4, !tbaa !13
  store i32 %24, ptr %13, align 4, !tbaa !13
  call void @llvm.lifetime.start.p0(i64 4, ptr %14) #6
  %25 = load i32, ptr %13, align 4, !tbaa !13
  %26 = load i32, ptr %7, align 4, !tbaa !13
  %27 = sub i32 %25, %26
  store i32 %27, ptr %14, align 4, !tbaa !13
  call void @llvm.lifetime.start.p0(i64 4, ptr %15) #6
  store i32 0, ptr %15, align 4, !tbaa !13
  call void @llvm.lifetime.start.p0(i64 4, ptr %16) #6
  call void @llvm.lifetime.start.p0(i64 4, ptr %17) #6
  call void @llvm.lifetime.start.p0(i64 4, ptr %18) #6
  %28 = getelementptr inbounds [128 x i8], ptr %11, i64 0, i64 0
  %29 = getelementptr inbounds [128 x i8], ptr %11, i64 0, i64 0
  %30 = ptrtoint ptr %29 to i64
  %31 = sub i64 0, %30
  %32 = and i64 %31, 63
  %33 = getelementptr inbounds nuw i8, ptr %28, i64 %32
  store ptr %33, ptr %12, align 8, !tbaa !11
  %34 = load i32, ptr %10, align 4, !tbaa !13
  %35 = load i32, ptr %7, align 4, !tbaa !13
  %36 = add i32 %35, 255
  %37 = add i32 %36, 1
  %38 = icmp ugt i32 %34, %37
  br i1 %38, label %39, label %45

39:                                               ; preds = %5
  %40 = load i32, ptr %10, align 4, !tbaa !13
  %41 = load i32, ptr %7, align 4, !tbaa !13
  %42 = add i32 %41, 255
  %43 = add i32 %42, 1
  %44 = sub i32 %40, %43
  store i32 %44, ptr %15, align 4, !tbaa !13
  br label %45

45:                                               ; preds = %39, %5
  %46 = load i32, ptr %14, align 4, !tbaa !13
  %47 = load i32, ptr %15, align 4, !tbaa !13
  %48 = sub i32 %46, %47
  store i32 %48, ptr %18, align 4, !tbaa !13
  %49 = load i32, ptr %7, align 4, !tbaa !13
  %50 = icmp eq i32 %49, 16
  br i1 %50, label %51, label %54

51:                                               ; preds = %45
  %52 = load i32, ptr %18, align 4, !tbaa !13
  %53 = and i32 %52, 15
  store i32 %53, ptr %18, align 4, !tbaa !13
  br label %99

54:                                               ; preds = %45
  %55 = load i32, ptr %7, align 4, !tbaa !13
  %56 = icmp eq i32 %55, 20
  br i1 %56, label %57, label %70

57:                                               ; preds = %54
  call void @llvm.lifetime.start.p0(i64 4, ptr %19) #6
  %58 = load i32, ptr %18, align 4, !tbaa !13
  %59 = mul i32 %58, 25
  %60 = lshr i32 %59, 9
  store i32 %60, ptr %19, align 4, !tbaa !13
  %61 = load i32, ptr %19, align 4, !tbaa !13
  %62 = mul i32 %61, 20
  %63 = load i32, ptr %18, align 4, !tbaa !13
  %64 = sub i32 %63, %62
  store i32 %64, ptr %18, align 4, !tbaa !13
  %65 = load i32, ptr %18, align 4, !tbaa !13
  %66 = call i32 @constant_time_ge(i32 noundef %65, i32 noundef 20)
  %67 = call i32 @constant_time_select(i32 noundef %66, i32 noundef 20, i32 noundef 0)
  %68 = load i32, ptr %18, align 4, !tbaa !13
  %69 = sub i32 %68, %67
  store i32 %69, ptr %18, align 4, !tbaa !13
  call void @llvm.lifetime.end.p0(i64 4, ptr %19) #6
  br label %98

70:                                               ; preds = %54
  %71 = load i32, ptr %7, align 4, !tbaa !13
  %72 = icmp eq i32 %71, 32
  br i1 %72, label %73, label %76

73:                                               ; preds = %70
  %74 = load i32, ptr %18, align 4, !tbaa !13
  %75 = and i32 %74, 31
  store i32 %75, ptr %18, align 4, !tbaa !13
  br label %97

76:                                               ; preds = %70
  %77 = load i32, ptr %7, align 4, !tbaa !13
  %78 = icmp eq i32 %77, 48
  br i1 %78, label %79, label %92

79:                                               ; preds = %76
  call void @llvm.lifetime.start.p0(i64 4, ptr %20) #6
  %80 = load i32, ptr %18, align 4, !tbaa !13
  %81 = mul i32 %80, 10
  %82 = lshr i32 %81, 9
  store i32 %82, ptr %20, align 4, !tbaa !13
  %83 = load i32, ptr %20, align 4, !tbaa !13
  %84 = mul i32 %83, 48
  %85 = load i32, ptr %18, align 4, !tbaa !13
  %86 = sub i32 %85, %84
  store i32 %86, ptr %18, align 4, !tbaa !13
  %87 = load i32, ptr %18, align 4, !tbaa !13
  %88 = call i32 @constant_time_ge(i32 noundef %87, i32 noundef 48)
  %89 = call i32 @constant_time_select(i32 noundef %88, i32 noundef 48, i32 noundef 0)
  %90 = load i32, ptr %18, align 4, !tbaa !13
  %91 = sub i32 %90, %89
  store i32 %91, ptr %18, align 4, !tbaa !13
  call void @llvm.lifetime.end.p0(i64 4, ptr %20) #6
  br label %96

92:                                               ; preds = %76
  %93 = load i32, ptr %18, align 4, !tbaa !13
  %94 = load i32, ptr %7, align 4, !tbaa !13
  %95 = urem i32 %93, %94
  store i32 %95, ptr %18, align 4, !tbaa !13
  br label %96

96:                                               ; preds = %92, %79
  br label %97

97:                                               ; preds = %96, %73
  br label %98

98:                                               ; preds = %97, %57
  br label %99

99:                                               ; preds = %98, %51
  %100 = load ptr, ptr %12, align 8, !tbaa !11
  %101 = load i32, ptr %7, align 4, !tbaa !13
  %102 = zext i32 %101 to i64
  call void @llvm.memset.p0.i64(ptr align 1 %100, i8 0, i64 %102, i1 false)
  %103 = load i32, ptr %15, align 4, !tbaa !13
  store i32 %103, ptr %16, align 4, !tbaa !13
  store i32 0, ptr %17, align 4, !tbaa !13
  br label %104

104:                                              ; preds = %143, %99
  %105 = load i32, ptr %16, align 4, !tbaa !13
  %106 = load i32, ptr %10, align 4, !tbaa !13
  %107 = icmp ult i32 %105, %106
  br i1 %107, label %108, label %146

108:                                              ; preds = %104
  call void @llvm.lifetime.start.p0(i64 1, ptr %21) #6
  %109 = load i32, ptr %16, align 4, !tbaa !13
  %110 = load i32, ptr %14, align 4, !tbaa !13
  %111 = call zeroext i8 @constant_time_ge_8(i32 noundef %109, i32 noundef %110)
  store i8 %111, ptr %21, align 1, !tbaa !15
  call void @llvm.lifetime.start.p0(i64 1, ptr %22) #6
  %112 = load i32, ptr %16, align 4, !tbaa !13
  %113 = load i32, ptr %13, align 4, !tbaa !13
  %114 = call zeroext i8 @constant_time_ge_8(i32 noundef %112, i32 noundef %113)
  store i8 %114, ptr %22, align 1, !tbaa !15
  call void @llvm.lifetime.start.p0(i64 1, ptr %23) #6
  %115 = load ptr, ptr %8, align 8, !tbaa !11
  %116 = load i32, ptr %16, align 4, !tbaa !13
  %117 = zext i32 %116 to i64
  %118 = getelementptr inbounds nuw i8, ptr %115, i64 %117
  %119 = load i8, ptr %118, align 1, !tbaa !15
  store i8 %119, ptr %23, align 1, !tbaa !15
  %120 = load i8, ptr %23, align 1, !tbaa !15
  %121 = zext i8 %120 to i32
  %122 = load i8, ptr %21, align 1, !tbaa !15
  %123 = zext i8 %122 to i32
  %124 = and i32 %121, %123
  %125 = load i8, ptr %22, align 1, !tbaa !15
  %126 = zext i8 %125 to i32
  %127 = xor i32 %126, -1
  %128 = and i32 %124, %127
  %129 = load ptr, ptr %12, align 8, !tbaa !11
  %130 = load i32, ptr %17, align 4, !tbaa !13
  %131 = add i32 %130, 1
  store i32 %131, ptr %17, align 4, !tbaa !13
  %132 = zext i32 %130 to i64
  %133 = getelementptr inbounds nuw i8, ptr %129, i64 %132
  %134 = load i8, ptr %133, align 1, !tbaa !15
  %135 = zext i8 %134 to i32
  %136 = or i32 %135, %128
  %137 = trunc i32 %136 to i8
  store i8 %137, ptr %133, align 1, !tbaa !15
  %138 = load i32, ptr %17, align 4, !tbaa !13
  %139 = load i32, ptr %7, align 4, !tbaa !13
  %140 = call i32 @constant_time_lt(i32 noundef %138, i32 noundef %139)
  %141 = load i32, ptr %17, align 4, !tbaa !13
  %142 = and i32 %141, %140
  store i32 %142, ptr %17, align 4, !tbaa !13
  call void @llvm.lifetime.end.p0(i64 1, ptr %23) #6
  call void @llvm.lifetime.end.p0(i64 1, ptr %22) #6
  call void @llvm.lifetime.end.p0(i64 1, ptr %21) #6
  br label %143

143:                                              ; preds = %108
  %144 = load i32, ptr %16, align 4, !tbaa !13
  %145 = add i32 %144, 1
  store i32 %145, ptr %16, align 4, !tbaa !13
  br label %104, !llvm.loop !18

146:                                              ; preds = %104
  store i32 0, ptr %17, align 4, !tbaa !13
  store i32 0, ptr %16, align 4, !tbaa !13
  br label %147

147:                                              ; preds = %174, %146
  %148 = load i32, ptr %16, align 4, !tbaa !13
  %149 = load i32, ptr %7, align 4, !tbaa !13
  %150 = icmp ult i32 %148, %149
  br i1 %150, label %151, label %177

151:                                              ; preds = %147
  %152 = load ptr, ptr %12, align 8, !tbaa !11
  %153 = load i32, ptr %18, align 4, !tbaa !13
  %154 = xor i32 %153, 32
  %155 = zext i32 %154 to i64
  %156 = getelementptr inbounds nuw i8, ptr %152, i64 %155
  %157 = load volatile i8, ptr %156, align 1, !tbaa !15
  %158 = load ptr, ptr %12, align 8, !tbaa !11
  %159 = load i32, ptr %18, align 4, !tbaa !13
  %160 = add i32 %159, 1
  store i32 %160, ptr %18, align 4, !tbaa !13
  %161 = zext i32 %159 to i64
  %162 = getelementptr inbounds nuw i8, ptr %158, i64 %161
  %163 = load i8, ptr %162, align 1, !tbaa !15
  %164 = load ptr, ptr %6, align 8, !tbaa !11
  %165 = load i32, ptr %17, align 4, !tbaa !13
  %166 = add i32 %165, 1
  store i32 %166, ptr %17, align 4, !tbaa !13
  %167 = zext i32 %165 to i64
  %168 = getelementptr inbounds nuw i8, ptr %164, i64 %167
  store i8 %163, ptr %168, align 1, !tbaa !15
  %169 = load i32, ptr %18, align 4, !tbaa !13
  %170 = load i32, ptr %7, align 4, !tbaa !13
  %171 = call i32 @constant_time_lt(i32 noundef %169, i32 noundef %170)
  %172 = load i32, ptr %18, align 4, !tbaa !13
  %173 = and i32 %172, %171
  store i32 %173, ptr %18, align 4, !tbaa !13
  br label %174

174:                                              ; preds = %151
  %175 = load i32, ptr %16, align 4, !tbaa !13
  %176 = add i32 %175, 1
  store i32 %176, ptr %16, align 4, !tbaa !13
  br label %147, !llvm.loop !19

177:                                              ; preds = %147
  call void @llvm.lifetime.end.p0(i64 4, ptr %18) #6
  call void @llvm.lifetime.end.p0(i64 4, ptr %17) #6
  call void @llvm.lifetime.end.p0(i64 4, ptr %16) #6
  call void @llvm.lifetime.end.p0(i64 4, ptr %15) #6
  call void @llvm.lifetime.end.p0(i64 4, ptr %14) #6
  call void @llvm.lifetime.end.p0(i64 4, ptr %13) #6
  call void @llvm.lifetime.end.p0(i64 8, ptr %12) #6
  call void @llvm.lifetime.end.p0(i64 128, ptr %11) #6
  ret void
}