; Function Attrs: nofree norecurse nounwind memory(argmem: readwrite, inaccessiblemem: readwrite) uwtable
define hidden void @EVP_tls_cbc_copy_mac(ptr noundef writeonly captures(none) %0, i32 noundef %1, ptr noundef readonly captures(none) %2, i32 noundef %3, i32 noundef %4) local_unnamed_addr #2 {
  %6 = alloca [128 x i8], align 16
  call void @llvm.lifetime.start.p0(i64 128, ptr nonnull %6) #9
  %7 = sub i32 %3, %1
  %8 = ptrtoint ptr %6 to i64
  %9 = sub i64 0, %8
  %10 = and i64 %9, 48
  %11 = getelementptr inbounds nuw i8, ptr %6, i64 %10
  %12 = add i32 %1, 256
  %spec.select = call i32 @llvm.usub.sat.i32(i32 %4, i32 %12)
  %13 = sub i32 %7, %spec.select
  %14 = add i32 %1, -16
  %15 = call i32 @llvm.fshl.i32(i32 %14, i32 %14, i32 30)
  switch i32 %15, label %34 [
    i32 0, label %16
    i32 1, label %18
    i32 4, label %25
    i32 8, label %27
  ]

16:                                               ; preds = %5
  %17 = and i32 %13, 15
  br label %36

18:                                               ; preds = %5
  %19 = mul i32 %13, 25
  %20 = lshr i32 %19, 9
  %.neg67 = mul nsw i32 %20, -20
  %21 = add i32 %.neg67, %13
  %22 = sub i32 19, %21
  %23 = or i32 %22, %21
  %isneg71 = icmp slt i32 %23, 0
  %.neg72 = select i1 %isneg71, i32 -20, i32 0
  %24 = add i32 %.neg72, %21
  br label %36

25:                                               ; preds = %5
  %26 = and i32 %13, 31
  br label %36

27:                                               ; preds = %5
  %28 = mul i32 %13, 10
  %29 = lshr i32 %28, 9
  %.neg = mul nsw i32 %29, -48
  %30 = add i32 %.neg, %13
  %31 = sub i32 47, %30
  %32 = or i32 %31, %30
  %isneg = icmp slt i32 %32, 0
  %.neg70 = select i1 %isneg, i32 -48, i32 0
  %33 = add i32 %.neg70, %30
  br label %36

34:                                               ; preds = %5
  %35 = urem i32 %13, %1
  br label %36

36:                                               ; preds = %18, %27, %34, %25, %16
  %.061 = phi i32 [ %17, %16 ], [ %24, %18 ], [ %26, %25 ], [ %33, %27 ], [ %35, %34 ]
  %37 = zext i32 %1 to i64
  call void @llvm.memset.p0.i64(ptr nonnull align 16 %11, i8 0, i64 %37, i1 false)
  %38 = icmp ult i32 %spec.select, %4
  br i1 %38, label %.lr.ph.preheader, label %.preheader

.lr.ph.preheader:                                 ; preds = %36
  %39 = zext i32 %spec.select to i64
  %wide.trip.count = zext i32 %4 to i64
  br label %.lr.ph

.preheader:                                       ; preds = %.lr.ph, %36
  %.not = icmp eq i32 %1, 0
  br i1 %.not, label %._crit_edge, label %.lr.ph80

.lr.ph:                                           ; preds = %.lr.ph.preheader, %.lr.ph
  %indvars.iv = phi i64 [ %39, %.lr.ph.preheader ], [ %indvars.iv.next, %.lr.ph ]
  %.05975 = phi i32 [ 0, %.lr.ph.preheader ], [ %66, %.lr.ph ]
  %40 = trunc nuw i64 %indvars.iv to i32
  %41 = xor i32 %7, %40
  %42 = sub i32 %40, %7
  %43 = xor i32 %42, %40
  %44 = or i32 %43, %41
  %45 = xor i32 %44, %40
  %isnotneg.i.i = icmp sgt i32 %45, -1
  %46 = xor i32 %3, %40
  %47 = sub i32 %40, %3
  %48 = xor i32 %47, %40
  %49 = or i32 %48, %46
  %50 = xor i32 %49, %40
  %51 = getelementptr inbounds nuw i8, ptr %2, i64 %indvars.iv
  %52 = load i8, ptr %51, align 1, !tbaa !6
  %53 = select i1 %isnotneg.i.i, i8 %52, i8 0
  %.lobit = ashr i32 %50, 31
  %54 = trunc nsw i32 %.lobit to i8
  %55 = and i8 %53, %54
  %56 = add i32 %.05975, 1
  %57 = zext i32 %.05975 to i64
  %58 = getelementptr inbounds nuw i8, ptr %11, i64 %57
  %59 = load i8, ptr %58, align 1, !tbaa !6
  %60 = or i8 %55, %59
  store i8 %60, ptr %58, align 1, !tbaa !6
  %61 = xor i32 %56, %1
  %62 = sub i32 %56, %1
  %63 = xor i32 %62, %56
  %64 = or i32 %63, %61
  %65 = xor i32 %64, %56
  %isneg74 = icmp slt i32 %65, 0
  %66 = select i1 %isneg74, i32 %56, i32 0
  %indvars.iv.next = add nuw nsw i64 %indvars.iv, 1
  %exitcond.not = icmp eq i64 %indvars.iv.next, %wide.trip.count
  br i1 %exitcond.not, label %.preheader, label %.lr.ph, !llvm.loop !13

.lr.ph80:                                         ; preds = %.preheader, %.lr.ph80
  %indvars.iv82 = phi i64 [ %indvars.iv.next83, %.lr.ph80 ], [ 0, %.preheader ]
  %.16277 = phi i32 [ %81, %.lr.ph80 ], [ %.061, %.preheader ]
  %67 = xor i32 %.16277, 32
  %68 = zext i32 %67 to i64
  %69 = getelementptr inbounds nuw i8, ptr %11, i64 %68
  %70 = load volatile i8, ptr %69, align 1, !tbaa !6
  %71 = add i32 %.16277, 1
  %72 = zext i32 %.16277 to i64
  %73 = getelementptr inbounds nuw i8, ptr %11, i64 %72
  %74 = load i8, ptr %73, align 1, !tbaa !6
  %indvars.iv.next83 = add nuw nsw i64 %indvars.iv82, 1
  %75 = getelementptr inbounds nuw i8, ptr %0, i64 %indvars.iv82
  store i8 %74, ptr %75, align 1, !tbaa !6
  %76 = xor i32 %71, %1
  %77 = sub i32 %71, %1
  %78 = xor i32 %77, %71
  %79 = or i32 %78, %76
  %80 = xor i32 %79, %71
  %isneg73 = icmp slt i32 %80, 0
  %81 = select i1 %isneg73, i32 %71, i32 0
  %exitcond88.not = icmp eq i64 %indvars.iv.next83, %37
  br i1 %exitcond88.not, label %._crit_edge, label %.lr.ph80, !llvm.loop !14

._crit_edge:                                      ; preds = %.lr.ph80, %.preheader
  call void @llvm.lifetime.end.p0(i64 128, ptr nonnull %6) #9
  ret void
}